target datalayout = "e-m:e-p270:32:32-p271:32:32-p272:64:64-i64:64-i128:128-f80:128-n8:16:32:64-S128"
target triple = "x86_64-pc-linux-gnu"

%class.anon = type { i8 }

@.str = private unnamed_addr constant [132 x i8] c"generated/home/dtcxzyw/WorkSpace/Projects/compilers/llvm-opt-benchmark/bench/abseil-cpp/abseil-cpp/absl/debugging/symbolize_elf.inc\00", align 1
@_ZZN4absl18debugging_internal12_GLOBAL__N_122OpenReadOnlyWithHighFDEPKcE7high_fd = internal global i32 0, align 4
@_ZGVZN4absl18debugging_internal12_GLOBAL__N_122OpenReadOnlyWithHighFDEPKcE7high_fd = internal global i64 0, align 8
@.str.17 = private unnamed_addr constant [39 x i8] c"Unable to dup fd=%d above %d, errno=%d\00", align 1

; Function Attrs: mustprogress uwtable
define internal noundef i32 @_ZN4absl18debugging_internal12_GLOBAL__N_122OpenReadOnlyWithHighFDEPKc(ptr noundef %0) #0 personality ptr @__gxx_personality_v0 {
  %2 = alloca i32, align 4
  %3 = alloca ptr, align 8
  %4 = alloca %class.anon, align 1
  %5 = alloca ptr, align 8
  %6 = alloca i32, align 4
  %7 = alloca i32, align 4
  %8 = alloca i32, align 4
  %9 = alloca i32, align 4
  %10 = alloca i32, align 4
  %11 = alloca ptr, align 8
  store ptr %0, ptr %3, align 8, !tbaa !4
  %12 = load atomic i8, ptr @_ZGVZN4absl18debugging_internal12_GLOBAL__N_122OpenReadOnlyWithHighFDEPKcE7high_fd acquire, align 8
  %13 = icmp eq i8 %12, 0
  br i1 %13, label %14, label %20, !prof !160

14:                                               ; preds = %1
  %15 = call i32 @__cxa_guard_acquire(ptr @_ZGVZN4absl18debugging_internal12_GLOBAL__N_122OpenReadOnlyWithHighFDEPKcE7high_fd) #17
  %16 = icmp ne i32 %15, 0
  br i1 %16, label %17, label %20

17:                                               ; preds = %14
  call void @llvm.lifetime.start.p0(i64 1, ptr %4) #17
  %18 = invoke noundef i32 @"_ZZN4absl18debugging_internal12_GLOBAL__N_122OpenReadOnlyWithHighFDEPKcENK3$_0clEv"(ptr noundef nonnull align 1 dereferenceable(1) %4)
          to label %19 unwind label %42

19:                                               ; preds = %17
  call void @llvm.lifetime.end.p0(i64 1, ptr %4) #17
  store i32 %18, ptr @_ZZN4absl18debugging_internal12_GLOBAL__N_122OpenReadOnlyWithHighFDEPKcE7high_fd, align 4, !tbaa !10
  call void @__cxa_guard_release(ptr @_ZGVZN4absl18debugging_internal12_GLOBAL__N_122OpenReadOnlyWithHighFDEPKcE7high_fd) #17
  br label %20

20:                                               ; preds = %19, %14, %1
  call void @llvm.lifetime.start.p0(i64 4, ptr %7) #17
  store i32 524288, ptr %7, align 4, !tbaa !10
  %21 = load i32, ptr @_ZZN4absl18debugging_internal12_GLOBAL__N_122OpenReadOnlyWithHighFDEPKcE7high_fd, align 4, !tbaa !10
  %22 = icmp sge i32 %21, 1000
  br i1 %22, label %23, label %61

23:                                               ; preds = %20
  call void @llvm.lifetime.start.p0(i64 4, ptr %8) #17
  %24 = load ptr, ptr %3, align 8, !tbaa !4
  %25 = call i32 (ptr, i32, ...) @open(ptr noundef %24, i32 noundef 524288)
  store i32 %25, ptr %8, align 4, !tbaa !10
  %26 = load i32, ptr %8, align 4, !tbaa !10
  %27 = icmp ne i32 %26, -1
  br i1 %27, label %28, label %58

28:                                               ; preds = %23
  %29 = load i32, ptr %8, align 4, !tbaa !10
  %30 = load i32, ptr @_ZZN4absl18debugging_internal12_GLOBAL__N_122OpenReadOnlyWithHighFDEPKcE7high_fd, align 4, !tbaa !10
  %31 = icmp slt i32 %29, %30
  br i1 %31, label %32, label %58

32:                                               ; preds = %28
  call void @llvm.lifetime.start.p0(i64 4, ptr %9) #17
  %33 = load i32, ptr %8, align 4, !tbaa !10
  %34 = load i32, ptr @_ZZN4absl18debugging_internal12_GLOBAL__N_122OpenReadOnlyWithHighFDEPKcE7high_fd, align 4, !tbaa !10
  %35 = call i32 (i32, i32, ...) @fcntl(i32 noundef %33, i32 noundef 1030, i32 noundef %34)
  store i32 %35, ptr %9, align 4, !tbaa !10
  %36 = load i32, ptr %9, align 4, !tbaa !10
  %37 = icmp ne i32 %36, -1
  br i1 %37, label %38, label %46

38:                                               ; preds = %32
  %39 = load i32, ptr %8, align 4, !tbaa !10
  %40 = call i32 @close(i32 noundef %39)
  %41 = load i32, ptr %9, align 4, !tbaa !10
  store i32 %41, ptr %2, align 4
  store i32 1, ptr %10, align 4
  br label %55

42:                                               ; preds = %17
  %43 = landingpad { ptr, i32 }
          cleanup
  %44 = extractvalue { ptr, i32 } %43, 0
  store ptr %44, ptr %5, align 8
  %45 = extractvalue { ptr, i32 } %43, 1
  store i32 %45, ptr %6, align 4
  call void @llvm.lifetime.end.p0(i64 1, ptr %4) #17
  call void @__cxa_guard_abort(ptr @_ZGVZN4absl18debugging_internal12_GLOBAL__N_122OpenReadOnlyWithHighFDEPKcE7high_fd) #17
  br label %66

46:                                               ; preds = %32
  br label %47

47:                                               ; preds = %46
  call void @llvm.lifetime.start.p0(i64 8, ptr %11) #17
  store ptr getelementptr (i8, ptr @.str, i64 114), ptr %11, align 8, !tbaa !4
  %48 = load i32, ptr %8, align 4, !tbaa !10
  %49 = load i32, ptr @_ZZN4absl18debugging_internal12_GLOBAL__N_122OpenReadOnlyWithHighFDEPKcE7high_fd, align 4, !tbaa !10
  %50 = call ptr @__errno_location() #21
  %51 = load i32, ptr %50, align 4, !tbaa !10
  call void (i32, ptr, i32, ptr, ...) @_ZN4absl16raw_log_internal6RawLogENS_11LogSeverityEPKciS3_z(i32 noundef 1, ptr noundef getelementptr (i8, ptr @.str, i64 114), i32 noundef 410, ptr noundef @.str.17, i32 noundef %48, i32 noundef %49, i32 noundef %51)
  call void @llvm.lifetime.end.p0(i64 8, ptr %11) #17
  br label %52

52:                                               ; preds = %47
  br label %53

53:                                               ; preds = %52
  br label %54

54:                                               ; preds = %53
  store i32 0, ptr %10, align 4
  br label %55

55:                                               ; preds = %54, %38
  call void @llvm.lifetime.end.p0(i64 4, ptr %9) #17
  %56 = load i32, ptr %10, align 4
  switch i32 %56, label %60 [
    i32 0, label %57
  ]

57:                                               ; preds = %55
  br label %58

58:                                               ; preds = %57, %28, %23
  %59 = load i32, ptr %8, align 4, !tbaa !10
  store i32 %59, ptr %2, align 4
  store i32 1, ptr %10, align 4
  br label %60

60:                                               ; preds = %58, %55
  call void @llvm.lifetime.end.p0(i64 4, ptr %8) #17
  br label %64

61:                                               ; preds = %20
  %62 = load ptr, ptr %3, align 8, !tbaa !4
  %63 = call i32 (ptr, i32, ...) @open(ptr noundef %62, i32 noundef 524288)
  store i32 %63, ptr %2, align 4
  store i32 1, ptr %10, align 4
  br label %64

64:                                               ; preds = %61, %60
  call void @llvm.lifetime.end.p0(i64 4, ptr %7) #17
  %65 = load i32, ptr %2, align 4
  ret i32 %65

66:                                               ; preds = %42
  %67 = load ptr, ptr %5, align 8
  %68 = load i32, ptr %6, align 4
  %69 = insertvalue { ptr, i32 } poison, ptr %67, 0
  %70 = insertvalue { ptr, i32 } %69, i32 %68, 1
  resume { ptr, i32 } %70
}