; Function Attrs: mustprogress uwtable
define internal fastcc noundef i32 @_ZN4absl18debugging_internal12_GLOBAL__N_122OpenReadOnlyWithHighFDEPKc(ptr noundef readonly captures(none) %0) unnamed_addr #0 personality ptr @__gxx_personality_v0 {
  %2 = load atomic i8, ptr @_ZGVZN4absl18debugging_internal12_GLOBAL__N_122OpenReadOnlyWithHighFDEPKcE7high_fd acquire, align 8
  %3 = icmp eq i8 %2, 0
  br i1 %3, label %4, label %9, !prof !113

4:                                                ; preds = %1
  %5 = tail call i32 @__cxa_guard_acquire(ptr nonnull @_ZGVZN4absl18debugging_internal12_GLOBAL__N_122OpenReadOnlyWithHighFDEPKcE7high_fd) #24
  %.not = icmp eq i32 %5, 0
  br i1 %.not, label %9, label %6

6:                                                ; preds = %4
  %7 = invoke fastcc noundef i32 @"_ZZN4absl18debugging_internal12_GLOBAL__N_122OpenReadOnlyWithHighFDEPKcENK3$_0clEv"()
          to label %8 unwind label %19

8:                                                ; preds = %6
  store i32 %7, ptr @_ZZN4absl18debugging_internal12_GLOBAL__N_122OpenReadOnlyWithHighFDEPKcE7high_fd, align 4, !tbaa !10
  tail call void @__cxa_guard_release(ptr nonnull @_ZGVZN4absl18debugging_internal12_GLOBAL__N_122OpenReadOnlyWithHighFDEPKcE7high_fd) #24
  br label %9

9:                                                ; preds = %8, %4, %1
  %10 = load i32, ptr @_ZZN4absl18debugging_internal12_GLOBAL__N_122OpenReadOnlyWithHighFDEPKcE7high_fd, align 4, !tbaa !10
  %11 = icmp sgt i32 %10, 999
  %12 = tail call i32 (ptr, i32, ...) @open(ptr noundef %0, i32 noundef 524288)
  br i1 %11, label %13, label %26

13:                                               ; preds = %9
  %.not15 = icmp eq i32 %12, -1
  br i1 %.not15, label %26, label %14

14:                                               ; preds = %13
  %15 = load i32, ptr @_ZZN4absl18debugging_internal12_GLOBAL__N_122OpenReadOnlyWithHighFDEPKcE7high_fd, align 4, !tbaa !10
  %16 = icmp slt i32 %12, %15
  br i1 %16, label %17, label %26

17:                                               ; preds = %14
  %18 = tail call i32 (i32, i32, ...) @fcntl(i32 noundef %12, i32 noundef 1030, i32 noundef %15)
  %.not16 = icmp eq i32 %18, -1
  br i1 %.not16, label %.thread, label %24

19:                                               ; preds = %6
  %20 = landingpad { ptr, i32 }
          cleanup
  tail call void @__cxa_guard_abort(ptr nonnull @_ZGVZN4absl18debugging_internal12_GLOBAL__N_122OpenReadOnlyWithHighFDEPKcE7high_fd) #24
  resume { ptr, i32 } %20

.thread:                                          ; preds = %17
  %21 = load i32, ptr @_ZZN4absl18debugging_internal12_GLOBAL__N_122OpenReadOnlyWithHighFDEPKcE7high_fd, align 4, !tbaa !10
  %22 = tail call ptr @__errno_location() #25
  %23 = load i32, ptr %22, align 4, !tbaa !10
  tail call void (i32, ptr, i32, ptr, ...) @_ZN4absl16raw_log_internal6RawLogENS_11LogSeverityEPKciS3_z(i32 noundef 1, ptr noundef nonnull getelementptr inbounds nuw (i8, ptr @.str, i64 114), i32 noundef 410, ptr noundef nonnull @.str.17, i32 noundef %12, i32 noundef %21, i32 noundef %23)
  br label %26

24:                                               ; preds = %17
  %25 = tail call i32 @close(i32 noundef %12)
  br label %26

26:                                               ; preds = %9, %13, %14, %.thread, %24
  %.2 = phi i32 [ %18, %24 ], [ %12, %.thread ], [ %12, %14 ], [ -1, %13 ], [ %12, %9 ]
  ret i32 %.2
}